; Function Attrs: inlinehint nounwind uwtable
define internal fastcc range(i32 0, 2) i32 @uriMergePathA(ptr noundef nonnull captures(none) %0, ptr noundef nonnull readonly captures(none) %1, ptr noundef %2) unnamed_addr #3 {
  %4 = getelementptr inbounds nuw i8, ptr %1, i64 96
  %5 = load ptr, ptr %4, align 8, !tbaa !17
  %6 = icmp eq ptr %5, null
  br i1 %6, label %.critedge, label %7

7:                                                ; preds = %3
  %8 = getelementptr inbounds nuw i8, ptr %0, i64 96
  %9 = load ptr, ptr %8, align 8, !tbaa !17
  %10 = icmp eq ptr %9, null
  br i1 %10, label %11, label %._crit_edge

._crit_edge:                                      ; preds = %7
  %.phi.trans.insert = getelementptr inbounds nuw i8, ptr %0, i64 104
  %.pre56 = load ptr, ptr %.phi.trans.insert, align 8, !tbaa !37
  br label %17

11:                                               ; preds = %7
  %12 = load ptr, ptr %2, align 8, !tbaa !31
  %13 = tail call ptr %12(ptr noundef nonnull %2, i64 noundef 32) #4
  %.not = icmp eq ptr %13, null
  br i1 %.not, label %.critedge, label %14

14:                                               ; preds = %11
  %15 = getelementptr inbounds nuw i8, ptr %13, i64 16
  store ptr null, ptr %15, align 8, !tbaa !36
  store ptr %13, ptr %8, align 8, !tbaa !17
  %16 = getelementptr inbounds nuw i8, ptr %0, i64 104
  store ptr %13, ptr %16, align 8, !tbaa !37
  %.pre = load ptr, ptr %4, align 8, !tbaa !17
  br label %17

17:                                               ; preds = %._crit_edge, %14
  %18 = phi ptr [ %13, %14 ], [ %.pre56, %._crit_edge ]
  %19 = phi ptr [ %.pre, %14 ], [ %5, %._crit_edge ]
  %20 = load ptr, ptr %19, align 8, !tbaa !33
  %21 = getelementptr inbounds nuw i8, ptr %0, i64 104
  store ptr %20, ptr %18, align 8, !tbaa !33
  %22 = getelementptr inbounds nuw i8, ptr %19, i64 8
  %23 = load ptr, ptr %22, align 8, !tbaa !35
  %24 = getelementptr inbounds nuw i8, ptr %18, i64 8
  store ptr %23, ptr %24, align 8, !tbaa !35
  %25 = getelementptr inbounds nuw i8, ptr %19, i64 16
  %26 = load ptr, ptr %25, align 8, !tbaa !36
  %27 = icmp eq ptr %26, null
  br i1 %27, label %.critedge, label %.preheader

.preheader:                                       ; preds = %17, %32
  %.039 = phi ptr [ %29, %32 ], [ %18, %17 ]
  %.035 = phi ptr [ %35, %32 ], [ %26, %17 ]
  %28 = load ptr, ptr %2, align 8, !tbaa !31
  %29 = tail call ptr %28(ptr noundef nonnull %2, i64 noundef 32) #4
  %30 = icmp eq ptr %29, null
  br i1 %30, label %.thread, label %32

.thread:                                          ; preds = %.preheader
  %31 = getelementptr inbounds nuw i8, ptr %.039, i64 16
  store ptr null, ptr %31, align 8, !tbaa !36
  store ptr %.039, ptr %21, align 8, !tbaa !37
  br label %.critedge

32:                                               ; preds = %.preheader
  tail call void @llvm.memcpy.p0.p0.i64(ptr noundef nonnull align 8 dereferenceable(16) %29, ptr noundef nonnull align 8 dereferenceable(16) %.035, i64 16, i1 false), !tbaa.struct !15
  %33 = getelementptr inbounds nuw i8, ptr %.039, i64 16
  store ptr %29, ptr %33, align 8, !tbaa !36
  %34 = getelementptr inbounds nuw i8, ptr %.035, i64 16
  %35 = load ptr, ptr %34, align 8, !tbaa !36
  %36 = icmp eq ptr %35, null
  br i1 %36, label %37, label %.preheader

37:                                               ; preds = %32
  store ptr %29, ptr %21, align 8, !tbaa !37
  %38 = getelementptr inbounds nuw i8, ptr %29, i64 16
  store ptr null, ptr %38, align 8, !tbaa !36
  br label %.critedge

.critedge:                                        ; preds = %.thread, %11, %17, %3, %37
  %.0 = phi i32 [ 1, %37 ], [ 1, %3 ], [ 1, %17 ], [ 0, %11 ], [ 0, %.thread ]
  ret i32 %.0
}